; Function Attrs: mustprogress uwtable
define hidden noundef zeroext i1 @_ZN3sat6solver21reached_max_conflictsEv(ptr noundef nonnull align 8 dereferenceable(4408) %this) local_unnamed_addr #3 align 2 {
entry:
  %m_max_conflicts = getelementptr inbounds i8, ptr %this, i64 164
  %0 = load i32, ptr %m_max_conflicts, align 4
  %cmp = icmp eq i32 %0, 0
  %m_conflicts_since_init = getelementptr inbounds i8, ptr %this, i64 4176
  %1 = load i32, ptr %m_conflicts_since_init, align 8
  %cmp4 = icmp ugt i32 %1, %0
  %or.cond = select i1 %cmp, i1 true, i1 %cmp4
  br i1 %or.cond, label %if.then, label %return

if.then:                                          ; preds = %entry
  %m_reason_unknown = getelementptr inbounds i8, ptr %this, i64 3944
  %call.i.i = tail call noundef i32 @_ZNKSt7__cxx1112basic_stringIcSt11char_traitsIcESaIcEE7compareEPKc(ptr noundef nonnull align 8 dereferenceable(32) %m_reason_unknown, ptr noundef nonnull @.str.78) #32
  %cmp.i.i.not = icmp eq i32 %call.i.i, 0
  br i1 %cmp.i.i.not, label %if.end24, label %if.then5

if.then5:                                         ; preds = %if.then
  %call7 = tail call noundef nonnull align 8 dereferenceable(32) ptr @_ZNSt7__cxx1112basic_stringIcSt11char_traitsIcESaIcEEaSEPKc(ptr noundef nonnull align 8 dereferenceable(32) %m_reason_unknown, ptr noundef nonnull @.str.78)
  %call8 = tail call noundef i32 @_Z19get_verbosity_levelv()
  %cmp9 = icmp ugt i32 %call8, 9
  br i1 %cmp9, label %if.then10, label %if.end24

if.then10:                                        ; preds = %if.then5
  %call11 = tail call noundef zeroext i1 @_Z11is_threadedv()
  br i1 %call11, label %if.then12, label %if.else

if.then12:                                        ; preds = %if.then10
  tail call void @_Z12verbose_lockv()
  %call13 = tail call noundef nonnull align 8 dereferenceable(8) ptr @_Z14verbose_streamv()
  %call14 = tail call noundef nonnull align 8 dereferenceable(8) ptr @_ZStlsISt11char_traitsIcEERSt13basic_ostreamIcT_ES5_PKc(ptr noundef nonnull align 8 dereferenceable(8) %call13, ptr noundef nonnull @.str.79)
  %2 = load i32, ptr %m_conflicts_since_init, align 8
  %call16 = tail call noundef nonnull align 8 dereferenceable(8) ptr @_ZNSolsEj(ptr noundef nonnull align 8 dereferenceable(8) %call14, i32 noundef %2)
  %call17 = tail call noundef nonnull align 8 dereferenceable(8) ptr @_ZStlsISt11char_traitsIcEERSt13basic_ostreamIcT_ES5_PKc(ptr noundef nonnull align 8 dereferenceable(8) %call16, ptr noundef nonnull @.str.80)
  tail call void @_Z14verbose_unlockv()
  br label %if.end24

if.else:                                          ; preds = %if.then10
  %call18 = tail call noundef nonnull align 8 dereferenceable(8) ptr @_Z14verbose_streamv()
  %call19 = tail call noundef nonnull align 8 dereferenceable(8) ptr @_ZStlsISt11char_traitsIcEERSt13basic_ostreamIcT_ES5_PKc(ptr noundef nonnull align 8 dereferenceable(8) %call18, ptr noundef nonnull @.str.79)
  %3 = load i32, ptr %m_conflicts_since_init, align 8
  %call21 = tail call noundef nonnull align 8 dereferenceable(8) ptr @_ZNSolsEj(ptr noundef nonnull align 8 dereferenceable(8) %call19, i32 noundef %3)
  %call22 = tail call noundef nonnull align 8 dereferenceable(8) ptr @_ZStlsISt11char_traitsIcEERSt13basic_ostreamIcT_ES5_PKc(ptr noundef nonnull align 8 dereferenceable(8) %call21, ptr noundef nonnull @.str.80)
  br label %if.end24

if.end24:                                         ; preds = %if.then5, %if.else, %if.then12, %if.then
  %m_inconsistent.i = getelementptr inbounds i8, ptr %this, i64 3336
  %4 = load i8, ptr %m_inconsistent.i, align 8
  %5 = and i8 %4, 1
  %tobool.i.not = icmp eq i8 %5, 0
  br label %return

return:                                           ; preds = %entry, %if.end24
  %retval.0 = phi i1 [ %tobool.i.not, %if.end24 ], [ false, %entry ]
  ret i1 %retval.0
}